target datalayout = "e-m:e-p270:32:32-p271:32:32-p272:64:64-i64:64-i128:128-f80:128-n8:16:32:64-S128"
target triple = "x86_64-unknown-linux-gnu"

%"class.hermes::vm::HermesValue" = type { i64 }
%"class.hermes::vm::CallResult" = type { i16, [2 x i8] }
%"class.hermes::vm::Handle" = type { %"class.hermes::vm::HandleBase" }
%"class.hermes::vm::HandleBase" = type { ptr }
%"class.hermes::vm::Handle.0" = type { %"class.hermes::vm::HandleBase" }
%"class.hermes::vm::GCCell" = type { %union.anon.4 }
%union.anon.4 = type { %"class.hermes::vm::KindAndSize" }
%"class.hermes::vm::KindAndSize" = type { i32 }
%"class.hermes::vm::SymbolID" = type { i32 }
%"union.hermes::vm::PropOpFlags" = type { i32 }
%"struct.hermes::vm::NamedPropertyDescriptor" = type { %"struct.hermes::vm::PropertyDescriptor" }
%"struct.hermes::vm::PropertyDescriptor" = type { %union.anon.179, i32 }
%union.anon.179 = type { i32 }
%"class.hermes::vm::Handle.183" = type { %"class.hermes::vm::HandleBase" }

; Function Attrs: mustprogress nounwind uwtable
define linkonce_odr hidden noundef i32 @_ZNK6hermes2vm11KindAndSize7getKindEv(ptr noundef nonnull align 4 dereferenceable(4) %this) #0 comdat align 2 {
entry:
  %this.addr = alloca ptr, align 8
  store ptr %this, ptr %this.addr, align 8
  %this1 = load ptr, ptr %this.addr, align 8
  %bf.load = load i32, ptr %this1, align 4
  %bf.lshr = lshr i32 %bf.load, 24
  ret i32 %bf.lshr
}

; Function Attrs: mustprogress nounwind uwtable
define linkonce_odr hidden noundef i32 @_ZNK6hermes2vm6GCCell7getKindEv(ptr noundef nonnull align 4 dereferenceable(4) %this) #0 comdat align 2 {
entry:
  %this.addr = alloca ptr, align 8
  store ptr %this, ptr %this.addr, align 8
  %this1 = load ptr, ptr %this.addr, align 8
  %0 = getelementptr inbounds %"class.hermes::vm::GCCell", ptr %this1, i32 0, i32 0
  %call = call noundef i32 @_ZNK6hermes2vm11KindAndSize7getKindEv(ptr noundef nonnull align 4 dereferenceable(4) %0)
  ret i32 %call
}

; Function Attrs: mustprogress nounwind uwtable
define linkonce_odr hidden noundef zeroext i1 @_ZN6hermes2vm7JSArray7classofEPKNS0_6GCCellE(ptr noundef %cell) #0 comdat align 2 {
entry:
  %cell.addr = alloca ptr, align 8
  store ptr %cell, ptr %cell.addr, align 8
  %0 = load ptr, ptr %cell.addr, align 8
  %call = call noundef i32 @_ZNK6hermes2vm6GCCell7getKindEv(ptr noundef nonnull align 4 dereferenceable(4) %0)
  %cmp = icmp eq i32 %call, 32
  ret i1 %cmp
}

; Function Attrs: mustprogress nounwind uwtable
define linkonce_odr hidden noundef zeroext i1 @_ZN4llvh8isa_implIN6hermes2vm7JSArrayENS2_6GCCellEvE4doitERKS4_(ptr noundef nonnull align 4 dereferenceable(4) %Val) #0 comdat align 2 {
entry:
  %Val.addr = alloca ptr, align 8
  store ptr %Val, ptr %Val.addr, align 8
  %0 = load ptr, ptr %Val.addr, align 8
  %call = call noundef zeroext i1 @_ZN6hermes2vm7JSArray7classofEPKNS0_6GCCellE(ptr noundef %0)
  ret i1 %call
}

; Function Attrs: mustprogress nounwind uwtable
define linkonce_odr hidden noundef zeroext i1 @_ZN4llvh11isa_impl_clIN6hermes2vm7JSArrayEPKNS2_6GCCellEE4doitES6_(ptr noundef %Val) #0 comdat align 2 {
entry:
  %Val.addr = alloca ptr, align 8
  store ptr %Val, ptr %Val.addr, align 8
  %0 = load ptr, ptr %Val.addr, align 8
  %call = call noundef zeroext i1 @_ZN4llvh8isa_implIN6hermes2vm7JSArrayENS2_6GCCellEvE4doitERKS4_(ptr noundef nonnull align 4 dereferenceable(4) %0)
  ret i1 %call
}

; Function Attrs: mustprogress nounwind uwtable
define linkonce_odr hidden noundef nonnull align 8 dereferenceable(8) ptr @_ZN4llvh13simplify_typeIPN6hermes2vm6GCCellEE18getSimplifiedValueERS4_(ptr noundef nonnull align 8 dereferenceable(8) %Val) #0 comdat align 2 {
entry:
  %Val.addr = alloca ptr, align 8
  store ptr %Val, ptr %Val.addr, align 8
  %0 = load ptr, ptr %Val.addr, align 8
  ret ptr %0
}

; Function Attrs: mustprogress nounwind uwtable
define linkonce_odr hidden noundef zeroext i1 @_ZN4llvh13isa_impl_wrapIN6hermes2vm7JSArrayEPKNS2_6GCCellES6_E4doitERKS6_(ptr noundef nonnull align 8 dereferenceable(8) %Val) #0 comdat align 2 {
entry:
  %Val.addr = alloca ptr, align 8
  store ptr %Val, ptr %Val.addr, align 8
  %0 = load ptr, ptr %Val.addr, align 8
  %1 = load ptr, ptr %0, align 8
  %call = call noundef zeroext i1 @_ZN4llvh11isa_impl_clIN6hermes2vm7JSArrayEPKNS2_6GCCellEE4doitES6_(ptr noundef %1)
  ret i1 %call
}

; Function Attrs: mustprogress nounwind uwtable
define linkonce_odr hidden noundef ptr @_ZN4llvh13simplify_typeIKPN6hermes2vm6GCCellEE18getSimplifiedValueERS5_(ptr noundef nonnull align 8 dereferenceable(8) %Val) #0 comdat align 2 {
entry:
  %Val.addr = alloca ptr, align 8
  store ptr %Val, ptr %Val.addr, align 8
  %0 = load ptr, ptr %Val.addr, align 8
  %call = call noundef nonnull align 8 dereferenceable(8) ptr @_ZN4llvh13simplify_typeIPN6hermes2vm6GCCellEE18getSimplifiedValueERS4_(ptr noundef nonnull align 8 dereferenceable(8) %0)
  %1 = load ptr, ptr %call, align 8
  ret ptr %1
}

; Function Attrs: mustprogress nounwind uwtable
define linkonce_odr hidden noundef ptr @_ZNK6hermes2vm11HermesValue10getPointerEv(ptr noundef nonnull align 8 dereferenceable(8) %this) #0 comdat align 2 {
entry:
  %this.addr = alloca ptr, align 8
  store ptr %this, ptr %this.addr, align 8
  %this1 = load ptr, ptr %this.addr, align 8
  %raw_ = getelementptr inbounds %"class.hermes::vm::HermesValue", ptr %this1, i32 0, i32 0
  %0 = load i64, ptr %raw_, align 8
  %and = and i64 %0, 281474976710655
  %1 = inttoptr i64 %and to ptr
  ret ptr %1
}

; Function Attrs: mustprogress nounwind uwtable
define linkonce_odr hidden void @_ZN6hermes2vm8SymbolIDC2Ej(ptr noundef nonnull align 4 dereferenceable(4) %this, i32 noundef %id) unnamed_addr #0 comdat align 2 {
entry:
  %this.addr = alloca ptr, align 8
  %id.addr = alloca i32, align 4
  store ptr %this, ptr %this.addr, align 8
  store i32 %id, ptr %id.addr, align 4
  %this1 = load ptr, ptr %this.addr, align 8
  %id_ = getelementptr inbounds %"class.hermes::vm::SymbolID", ptr %this1, i32 0, i32 0
  %0 = load i32, ptr %id.addr, align 4
  store i32 %0, ptr %id_, align 4
  ret void
}

; Function Attrs: mustprogress nounwind uwtable
define linkonce_odr hidden noundef zeroext i1 @_ZN4llvh13isa_impl_wrapIN6hermes2vm7JSArrayEKPNS2_6GCCellEPKS4_E4doitERS6_(ptr noundef nonnull align 8 dereferenceable(8) %Val) #0 comdat align 2 {
entry:
  %Val.addr = alloca ptr, align 8
  %ref.tmp = alloca ptr, align 8
  store ptr %Val, ptr %Val.addr, align 8
  %0 = load ptr, ptr %Val.addr, align 8
  %call = call noundef ptr @_ZN4llvh13simplify_typeIKPN6hermes2vm6GCCellEE18getSimplifiedValueERS5_(ptr noundef nonnull align 8 dereferenceable(8) %0)
  store ptr %call, ptr %ref.tmp, align 8
  %call1 = call noundef zeroext i1 @_ZN4llvh13isa_impl_wrapIN6hermes2vm7JSArrayEPKNS2_6GCCellES6_E4doitERKS6_(ptr noundef nonnull align 8 dereferenceable(8) %ref.tmp)
  ret i1 %call1
}

; Function Attrs: mustprogress nounwind uwtable
define linkonce_odr hidden noundef ptr @_ZNK6hermes2vm11HermesValue9getObjectEv(ptr noundef nonnull align 8 dereferenceable(8) %this) #0 comdat align 2 {
entry:
  %this.addr = alloca ptr, align 8
  store ptr %this, ptr %this.addr, align 8
  %this1 = load ptr, ptr %this.addr, align 8
  %call = call noundef ptr @_ZNK6hermes2vm11HermesValue10getPointerEv(ptr noundef nonnull align 8 dereferenceable(8) %this1)
  ret ptr %call
}

; Function Attrs: mustprogress nounwind uwtable
define linkonce_odr hidden noundef ptr @_ZNK6hermes2vm10HandleBase9handleRefEv(ptr noundef nonnull align 8 dereferenceable(8) %this) #0 comdat align 2 {
entry:
  %this.addr = alloca ptr, align 8
  store ptr %this, ptr %this.addr, align 8
  %this1 = load ptr, ptr %this.addr, align 8
  %handle_ = getelementptr inbounds %"class.hermes::vm::HandleBase", ptr %this1, i32 0, i32 0
  %0 = load ptr, ptr %handle_, align 8
  ret ptr %0
}

; Function Attrs: mustprogress nounwind uwtable
define linkonce_odr hidden void @_ZN6hermes2vm6HandleINS0_7JSArrayEEC2ERKNS0_10HandleBaseEb(ptr noundef nonnull align 8 dereferenceable(8) %this, ptr noundef nonnull align 8 dereferenceable(8) %hb, i1 noundef zeroext %0) unnamed_addr #0 comdat align 2 {
entry:
  %this.addr = alloca ptr, align 8
  %hb.addr = alloca ptr, align 8
  %.addr = alloca i8, align 1
  store ptr %this, ptr %this.addr, align 8
  store ptr %hb, ptr %hb.addr, align 8
  %frombool = zext i1 %0 to i8
  store i8 %frombool, ptr %.addr, align 1
  %this1 = load ptr, ptr %this.addr, align 8
  %1 = load ptr, ptr %hb.addr, align 8
  call void @llvm.memcpy.p0.p0.i64(ptr align 8 %this1, ptr align 8 %1, i64 8, i1 false)
  ret void
}

; Function Attrs: mustprogress nounwind uwtable
define linkonce_odr hidden void @_ZN6hermes2vm15HermesValueCastINS0_7JSArrayELb1EE11assertValidENS0_11HermesValueE(i64 %x.coerce) #0 comdat align 2 {
entry:
  %x = alloca %"class.hermes::vm::HermesValue", align 8
  %coerce.dive = getelementptr inbounds %"class.hermes::vm::HermesValue", ptr %x, i32 0, i32 0
  store i64 %x.coerce, ptr %coerce.dive, align 8
  ret void
}

; Function Attrs: mustprogress nounwind uwtable
define linkonce_odr hidden i32 @_ZN6hermes2vm8SymbolID12unsafeCreateEj(i32 noundef %id) #0 comdat align 2 {
entry:
  %retval = alloca %"class.hermes::vm::SymbolID", align 4
  %id.addr = alloca i32, align 4
  store i32 %id, ptr %id.addr, align 4
  %0 = load i32, ptr %id.addr, align 4
  call void @_ZN6hermes2vm8SymbolIDC2Ej(ptr noundef nonnull align 4 dereferenceable(4) %retval, i32 noundef %0)
  %coerce.dive = getelementptr inbounds %"class.hermes::vm::SymbolID", ptr %retval, i32 0, i32 0
  %1 = load i32, ptr %coerce.dive, align 4
  ret i32 %1
}

; Function Attrs: mustprogress nounwind uwtable
define linkonce_odr hidden noundef zeroext i1 @_ZN4llvh3isaIN6hermes2vm7JSArrayEPNS2_6GCCellEEEbRKT0_(ptr noundef nonnull align 8 dereferenceable(8) %Val) #0 comdat {
entry:
  %Val.addr = alloca ptr, align 8
  store ptr %Val, ptr %Val.addr, align 8
  %0 = load ptr, ptr %Val.addr, align 8
  %call = call noundef zeroext i1 @_ZN4llvh13isa_impl_wrapIN6hermes2vm7JSArrayEKPNS2_6GCCellEPKS4_E4doitERS6_(ptr noundef nonnull align 8 dereferenceable(8) %0)
  ret i1 %call
}

; Function Attrs: mustprogress nounwind uwtable
define linkonce_odr hidden noundef ptr @_ZN6hermes2vm17HermesValueTraitsINS0_8JSObjectELb1EE6decodeENS0_11HermesValueE(i64 %value.coerce) #0 comdat align 2 {
entry:
  %value = alloca %"class.hermes::vm::HermesValue", align 8
  %coerce.dive = getelementptr inbounds %"class.hermes::vm::HermesValue", ptr %value, i32 0, i32 0
  store i64 %value.coerce, ptr %coerce.dive, align 8
  %call = call noundef ptr @_ZNK6hermes2vm11HermesValue9getObjectEv(ptr noundef nonnull align 8 dereferenceable(8) %value)
  ret ptr %call
}

; Function Attrs: mustprogress nounwind uwtable
define linkonce_odr hidden i64 @_ZNK6hermes2vm10HandleBase14getHermesValueEv(ptr noundef nonnull align 8 dereferenceable(8) %this) #0 comdat align 2 {
entry:
  %retval = alloca %"class.hermes::vm::HermesValue", align 8
  %this.addr = alloca ptr, align 8
  store ptr %this, ptr %this.addr, align 8
  %this1 = load ptr, ptr %this.addr, align 8
  %call = call noundef ptr @_ZNK6hermes2vm10HandleBase9handleRefEv(ptr noundef nonnull align 8 dereferenceable(8) %this1)
  call void @llvm.memcpy.p0.p0.i64(ptr align 8 %retval, ptr align 8 %call, i64 8, i1 false)
  %coerce.dive = getelementptr inbounds %"class.hermes::vm::HermesValue", ptr %retval, i32 0, i32 0
  %0 = load i64, ptr %coerce.dive, align 8
  ret i64 %0
}

; Function Attrs: mustprogress nounwind uwtable
define linkonce_odr hidden ptr @_ZN6hermes2vm6HandleINS0_7JSArrayEE6vmcastERKNS0_10HandleBaseE(ptr noundef nonnull align 8 dereferenceable(8) %other) #0 comdat align 2 {
entry:
  %retval = alloca %"class.hermes::vm::Handle.183", align 8
  %other.addr = alloca ptr, align 8
  %agg.tmp = alloca %"class.hermes::vm::HermesValue", align 8
  store ptr %other, ptr %other.addr, align 8
  %0 = load ptr, ptr %other.addr, align 8
  %call = call i64 @_ZNK6hermes2vm10HandleBase14getHermesValueEv(ptr noundef nonnull align 8 dereferenceable(8) %0)
  %coerce.dive = getelementptr inbounds %"class.hermes::vm::HermesValue", ptr %agg.tmp, i32 0, i32 0
  store i64 %call, ptr %coerce.dive, align 8
  %coerce.dive1 = getelementptr inbounds %"class.hermes::vm::HermesValue", ptr %agg.tmp, i32 0, i32 0
  %1 = load i64, ptr %coerce.dive1, align 8
  call void @_ZN6hermes2vm15HermesValueCastINS0_7JSArrayELb1EE11assertValidENS0_11HermesValueE(i64 %1)
  %2 = load ptr, ptr %other.addr, align 8
  call void @_ZN6hermes2vm6HandleINS0_7JSArrayEEC2ERKNS0_10HandleBaseEb(ptr noundef nonnull align 8 dereferenceable(8) %retval, ptr noundef nonnull align 8 dereferenceable(8) %2, i1 noundef zeroext true)
  %coerce.dive2 = getelementptr inbounds %"class.hermes::vm::Handle.183", ptr %retval, i32 0, i32 0
  %coerce.dive3 = getelementptr inbounds %"class.hermes::vm::HandleBase", ptr %coerce.dive2, i32 0, i32 0
  %3 = load ptr, ptr %coerce.dive3, align 8
  ret ptr %3
}

; Function Attrs: mustprogress nounwind uwtable
define linkonce_odr hidden noundef zeroext i1 @_ZNK6hermes2vm8SymbolIDeqES1_(ptr noundef nonnull align 4 dereferenceable(4) %this, i32 %sym.coerce) #0 comdat align 2 {
entry:
  %sym = alloca %"class.hermes::vm::SymbolID", align 4
  %this.addr = alloca ptr, align 8
  %coerce.dive = getelementptr inbounds %"class.hermes::vm::SymbolID", ptr %sym, i32 0, i32 0
  store i32 %sym.coerce, ptr %coerce.dive, align 4
  store ptr %this, ptr %this.addr, align 8
  %this1 = load ptr, ptr %this.addr, align 8
  %id_ = getelementptr inbounds %"class.hermes::vm::SymbolID", ptr %this1, i32 0, i32 0
  %0 = load i32, ptr %id_, align 4
  %id_2 = getelementptr inbounds %"class.hermes::vm::SymbolID", ptr %sym, i32 0, i32 0
  %1 = load i32, ptr %id_2, align 4
  %cmp = icmp eq i32 %0, %1
  ret i1 %cmp
}

; Function Attrs: mustprogress nounwind uwtable
define linkonce_odr hidden i32 @_ZN6hermes2vm10Predefined11getSymbolIDENS1_3StrE(i32 noundef %predefined) #0 comdat {
entry:
  %retval = alloca %"class.hermes::vm::SymbolID", align 4
  %predefined.addr = alloca i32, align 4
  store i32 %predefined, ptr %predefined.addr, align 4
  %0 = load i32, ptr %predefined.addr, align 4
  %call = call i32 @_ZN6hermes2vm8SymbolID12unsafeCreateEj(i32 noundef %0)
  %coerce.dive = getelementptr inbounds %"class.hermes::vm::SymbolID", ptr %retval, i32 0, i32 0
  store i32 %call, ptr %coerce.dive, align 4
  %coerce.dive1 = getelementptr inbounds %"class.hermes::vm::SymbolID", ptr %retval, i32 0, i32 0
  %1 = load i32, ptr %coerce.dive1, align 4
  ret i32 %1
}

; Function Attrs: mustprogress nounwind uwtable
define linkonce_odr hidden noundef zeroext i1 @_ZN6hermes2vm5vmisaINS0_7JSArrayEEEbPNS0_6GCCellE(ptr noundef %cell) #0 comdat {
entry:
  %cell.addr = alloca ptr, align 8
  store ptr %cell, ptr %cell.addr, align 8
  %call = call noundef zeroext i1 @_ZN4llvh3isaIN6hermes2vm7JSArrayEPNS2_6GCCellEEEbRKT0_(ptr noundef nonnull align 8 dereferenceable(8) %cell.addr)
  ret i1 %call
}

; Function Attrs: mustprogress nounwind uwtable
define linkonce_odr hidden noundef ptr @_ZNK6hermes2vm6HandleINS0_8JSObjectEE3getEv(ptr noundef nonnull align 8 dereferenceable(8) %this) #0 comdat align 2 {
entry:
  %this.addr = alloca ptr, align 8
  %agg.tmp = alloca %"class.hermes::vm::HermesValue", align 8
  store ptr %this, ptr %this.addr, align 8
  %this1 = load ptr, ptr %this.addr, align 8
  %call = call i64 @_ZNK6hermes2vm10HandleBase14getHermesValueEv(ptr noundef nonnull align 8 dereferenceable(8) %this1)
  %coerce.dive = getelementptr inbounds %"class.hermes::vm::HermesValue", ptr %agg.tmp, i32 0, i32 0
  store i64 %call, ptr %coerce.dive, align 8
  %coerce.dive2 = getelementptr inbounds %"class.hermes::vm::HermesValue", ptr %agg.tmp, i32 0, i32 0
  %0 = load i64, ptr %coerce.dive2, align 8
  %call3 = call noundef ptr @_ZN6hermes2vm17HermesValueTraitsINS0_8JSObjectELb1EE6decodeENS0_11HermesValueE(i64 %0)
  ret ptr %call3
}

; Function Attrs: mustprogress nounwind uwtable
define hidden i32 @_ZN6hermes2vm8JSObject14internalSetterENS0_6HandleIS1_EERNS0_7RuntimeENS0_8SymbolIDENS0_23NamedPropertyDescriptorENS2_INS0_11HermesValueEEENS0_11PropOpFlagsE(ptr %selfHandle.coerce, ptr noundef nonnull align 8 dereferenceable(9832) %runtime, i32 %name.coerce, i64 %.coerce, ptr %value.coerce, i32 %opFlags.coerce) #0 align 2 {
entry:
  %retval = alloca %"class.hermes::vm::CallResult", align 4
  %selfHandle = alloca %"class.hermes::vm::Handle", align 8
  %name = alloca %"class.hermes::vm::SymbolID", align 4
  %0 = alloca %"struct.hermes::vm::NamedPropertyDescriptor", align 4
  %value = alloca %"class.hermes::vm::Handle.0", align 8
  %opFlags = alloca %"union.hermes::vm::PropOpFlags", align 4
  %runtime.addr = alloca ptr, align 8
  %agg.tmp = alloca %"class.hermes::vm::SymbolID", align 4
  %agg.tmp13 = alloca %"class.hermes::vm::Handle.183", align 8
  %agg.tmp17 = alloca %"class.hermes::vm::Handle.0", align 8
  %agg.tmp18 = alloca %"union.hermes::vm::PropOpFlags", align 4
  %coerce.dive = getelementptr inbounds %"class.hermes::vm::Handle", ptr %selfHandle, i32 0, i32 0
  %coerce.dive1 = getelementptr inbounds %"class.hermes::vm::HandleBase", ptr %coerce.dive, i32 0, i32 0
  store ptr %selfHandle.coerce, ptr %coerce.dive1, align 8
  %coerce.dive2 = getelementptr inbounds %"class.hermes::vm::SymbolID", ptr %name, i32 0, i32 0
  store i32 %name.coerce, ptr %coerce.dive2, align 4
  %coerce.dive3 = getelementptr inbounds %"struct.hermes::vm::NamedPropertyDescriptor", ptr %0, i32 0, i32 0
  store i64 %.coerce, ptr %coerce.dive3, align 4
  %coerce.dive4 = getelementptr inbounds %"class.hermes::vm::Handle.0", ptr %value, i32 0, i32 0
  %coerce.dive5 = getelementptr inbounds %"class.hermes::vm::HandleBase", ptr %coerce.dive4, i32 0, i32 0
  store ptr %value.coerce, ptr %coerce.dive5, align 8
  %coerce.dive6 = getelementptr inbounds %"union.hermes::vm::PropOpFlags", ptr %opFlags, i32 0, i32 0
  store i32 %opFlags.coerce, ptr %coerce.dive6, align 4
  store ptr %runtime, ptr %runtime.addr, align 8
  %call = call noundef ptr @_ZNK6hermes2vm6HandleINS0_8JSObjectEE3getEv(ptr noundef nonnull align 8 dereferenceable(8) %selfHandle)
  %call7 = call noundef zeroext i1 @_ZN6hermes2vm5vmisaINS0_7JSArrayEEEbPNS0_6GCCellE(ptr noundef %call)
  br i1 %call7, label %if.then, label %if.end25

if.then:                                          ; preds = %entry
  %call8 = call i32 @_ZN6hermes2vm10Predefined11getSymbolIDENS1_3StrE(i32 noundef 82)
  %coerce.dive9 = getelementptr inbounds %"class.hermes::vm::SymbolID", ptr %agg.tmp, i32 0, i32 0
  store i32 %call8, ptr %coerce.dive9, align 4
  %coerce.dive10 = getelementptr inbounds %"class.hermes::vm::SymbolID", ptr %agg.tmp, i32 0, i32 0
  %1 = load i32, ptr %coerce.dive10, align 4
  %call11 = call noundef zeroext i1 @_ZNK6hermes2vm8SymbolIDeqES1_(ptr noundef nonnull align 4 dereferenceable(4) %name, i32 %1)
  br i1 %call11, label %if.then12, label %if.end

if.then12:                                        ; preds = %if.then
  %call14 = call ptr @_ZN6hermes2vm6HandleINS0_7JSArrayEE6vmcastERKNS0_10HandleBaseE(ptr noundef nonnull align 8 dereferenceable(8) %selfHandle)
  %coerce.dive15 = getelementptr inbounds %"class.hermes::vm::Handle.183", ptr %agg.tmp13, i32 0, i32 0
  %coerce.dive16 = getelementptr inbounds %"class.hermes::vm::HandleBase", ptr %coerce.dive15, i32 0, i32 0
  store ptr %call14, ptr %coerce.dive16, align 8
  %2 = load ptr, ptr %runtime.addr, align 8
  call void @llvm.memcpy.p0.p0.i64(ptr align 8 %agg.tmp17, ptr align 8 %value, i64 8, i1 false)
  call void @llvm.memcpy.p0.p0.i64(ptr align 4 %agg.tmp18, ptr align 4 %opFlags, i64 4, i1 false)
  %coerce.dive19 = getelementptr inbounds %"class.hermes::vm::Handle.183", ptr %agg.tmp13, i32 0, i32 0
  %coerce.dive20 = getelementptr inbounds %"class.hermes::vm::HandleBase", ptr %coerce.dive19, i32 0, i32 0
  %3 = load ptr, ptr %coerce.dive20, align 8
  %coerce.dive21 = getelementptr inbounds %"class.hermes::vm::Handle.0", ptr %agg.tmp17, i32 0, i32 0
  %coerce.dive22 = getelementptr inbounds %"class.hermes::vm::HandleBase", ptr %coerce.dive21, i32 0, i32 0
  %4 = load ptr, ptr %coerce.dive22, align 8
  %coerce.dive23 = getelementptr inbounds %"union.hermes::vm::PropOpFlags", ptr %agg.tmp18, i32 0, i32 0
  %5 = load i32, ptr %coerce.dive23, align 4
  %call24 = call i32 @_ZN6hermes2vm7JSArray9setLengthENS0_6HandleIS1_EERNS0_7RuntimeENS2_INS0_11HermesValueEEENS0_11PropOpFlagsE(ptr %3, ptr noundef nonnull align 8 dereferenceable(9832) %2, ptr %4, i32 %5)
  store i32 %call24, ptr %retval, align 4
  %6 = load i32, ptr %retval, align 4
  ret i32 %6

if.end:                                           ; preds = %if.then
  br label %if.end25

if.end25:                                         ; preds = %if.end, %entry
  unreachable
}