; Function Attrs: mustprogress nounwind uwtable
define hidden i32 @_ZN6hermes2vm8JSObject14internalSetterENS0_6HandleIS1_EERNS0_7RuntimeENS0_8SymbolIDENS0_23NamedPropertyDescriptorENS2_INS0_11HermesValueEEENS0_11PropOpFlagsE(ptr %selfHandle.coerce, ptr noundef nonnull align 8 dereferenceable(9832) %runtime, i32 %name.coerce, i64 %.coerce, ptr %value.coerce, i32 %opFlags.coerce) local_unnamed_addr #1 align 2 {
entry:
  %retval.sroa.0.0.copyload.i.i = load i64, ptr %selfHandle.coerce, align 8
  %and.i.i.i.i = and i64 %retval.sroa.0.0.copyload.i.i, 281474976710655
  %0 = inttoptr i64 %and.i.i.i.i to ptr
  %bf.load.i.i.i.i.i.i.i.i.i = load i32, ptr %0, align 4
  %bf.lshr.i.i.mask.i.i.i.i.i.i.i = and i32 %bf.load.i.i.i.i.i.i.i.i.i, -16777216
  %cmp.i.i.i.i.i.i.i = icmp eq i32 %bf.lshr.i.i.mask.i.i.i.i.i.i.i, 536870912
  tail call void @llvm.assume(i1 %cmp.i.i.i.i.i.i.i)
  %cmp.i = icmp eq i32 %name.coerce, 82
  tail call void @llvm.assume(i1 %cmp.i)
  %call24 = tail call i32 @_ZN6hermes2vm7JSArray9setLengthENS0_6HandleIS1_EERNS0_7RuntimeENS2_INS0_11HermesValueEEENS0_11PropOpFlagsE(ptr nonnull %selfHandle.coerce, ptr noundef nonnull align 8 dereferenceable(9832) %runtime, ptr %value.coerce, i32 %opFlags.coerce) #17
  ret i32 %call24
}